target datalayout = "e-m:e-p270:32:32-p271:32:32-p272:64:64-i64:64-i128:128-f80:128-n8:16:32:64-S128"
target triple = "x86_64-pc-linux-gnu"

%struct.AVCodecContext = type { ptr, i32, i32, ptr, i32, i32, ptr, ptr, ptr, i64, i32, i32, ptr, i32, %struct.AVRational, %struct.AVRational, %struct.AVRational, i32, i32, i32, i32, i32, %struct.AVRational, i32, i32, i32, i32, i32, i32, i32, i32, i32, i32, i32, ptr, ptr, i32, float, float, float, float, float, float, float, float, float, i32, i32, i32, i32, i32, i32, i32, i32, i32, i32, i32, i32, ptr, ptr, ptr, i32, i32, i32, i32, i32, i32, i32, i32, i32, i32, %struct.AVChannelLayout, i32, i32, i32, i32, i32, i32, i32, i32, ptr, i32, i32, i32, float, float, i32, i32, i32, i32, i32, ptr, i64, i64, float, float, i32, i32, ptr, ptr, i32, i32, i32, i32, i32, ptr, ptr, ptr, ptr, i32, i32, [8 x i64], i32, i32, i32, i32, i32, i32, i32, ptr, ptr, i32, i32, i32, i32, i32, i32, i32, i32, i32, i32, ptr, ptr, i32, i32, ptr, ptr, ptr, ptr, i32, i32, i64, i32, i32, i64, ptr, i64, ptr, i32, ptr, i32 }
%struct.AVRational = type { i32, i32 }
%struct.AVChannelLayout = type { i32, i32, %union.anon.0, ptr }
%union.anon.0 = type { i64 }
%struct.CLVContext = type { ptr, %struct.IDCTDSPContext, ptr, ptr, %struct.GetBitContext, i32, i32, i32, i32, %struct.MVInfo, i32, i32, i32, i32, i32, [12 x i8], [64 x i16], [3 x i32], [4 x i32] }
%struct.IDCTDSPContext = type { ptr, ptr, ptr, ptr, ptr, ptr, [64 x i8], i32, i32 }
%struct.GetBitContext = type { ptr, ptr, i32, i32, i32 }
%struct.MVInfo = type { i32, i32, i32, i32, i32, ptr }

@clv_decode_init.init_static_once = internal global i32 0, align 4
@.str.2 = private unnamed_addr constant [32 x i8] c"Unsupported extradata size: %d\0A\00", align 1
@.str.3 = private unnamed_addr constant [49 x i8] c"Tile size: %d, is not power of 2 > 1 and < 2^31\0A\00", align 1
@ff_log2_tab = external constant [256 x i8], align 16

; Function Attrs: alwaysinline nounwind willreturn memory(none) uwtable
define internal i32 @ff_log2_c(i32 noundef %0) #3 {
  %2 = alloca i32, align 4
  %3 = alloca i32, align 4
  store i32 %0, ptr %2, align 4, !tbaa !44
  call void @llvm.lifetime.start.p0(i64 4, ptr %3) #11
  store i32 0, ptr %3, align 4, !tbaa !44
  %4 = load i32, ptr %2, align 4, !tbaa !44
  %5 = and i32 %4, -65536
  %6 = icmp ne i32 %5, 0
  br i1 %6, label %7, label %12

7:                                                ; preds = %1
  %8 = load i32, ptr %2, align 4, !tbaa !44
  %9 = lshr i32 %8, 16
  store i32 %9, ptr %2, align 4, !tbaa !44
  %10 = load i32, ptr %3, align 4, !tbaa !44
  %11 = add nsw i32 %10, 16
  store i32 %11, ptr %3, align 4, !tbaa !44
  br label %12

12:                                               ; preds = %7, %1
  %13 = load i32, ptr %2, align 4, !tbaa !44
  %14 = and i32 %13, 65280
  %15 = icmp ne i32 %14, 0
  br i1 %15, label %16, label %21

16:                                               ; preds = %12
  %17 = load i32, ptr %2, align 4, !tbaa !44
  %18 = lshr i32 %17, 8
  store i32 %18, ptr %2, align 4, !tbaa !44
  %19 = load i32, ptr %3, align 4, !tbaa !44
  %20 = add nsw i32 %19, 8
  store i32 %20, ptr %3, align 4, !tbaa !44
  br label %21

21:                                               ; preds = %16, %12
  %22 = load i32, ptr %2, align 4, !tbaa !44
  %23 = zext i32 %22 to i64
  %24 = getelementptr inbounds nuw [256 x i8], ptr @ff_log2_tab, i64 0, i64 %23
  %25 = load i8, ptr %24, align 1, !tbaa !33
  %26 = zext i8 %25 to i32
  %27 = load i32, ptr %3, align 4, !tbaa !44
  %28 = add nsw i32 %27, %26
  store i32 %28, ptr %3, align 4, !tbaa !44
  %29 = load i32, ptr %3, align 4, !tbaa !44
  call void @llvm.lifetime.end.p0(i64 4, ptr %3) #11
  ret i32 %29
}

; Function Attrs: alwaysinline nounwind willreturn memory(none) uwtable
define internal i32 @av_bswap32(i32 noundef %0) #3 {
  %2 = alloca i32, align 4
  store i32 %0, ptr %2, align 4, !tbaa !44
  %3 = load i32, ptr %2, align 4, !tbaa !44
  %4 = shl i32 %3, 8
  %5 = and i32 %4, 65280
  %6 = load i32, ptr %2, align 4, !tbaa !44
  %7 = lshr i32 %6, 8
  %8 = and i32 %7, 255
  %9 = or i32 %5, %8
  %10 = shl i32 %9, 16
  %11 = load i32, ptr %2, align 4, !tbaa !44
  %12 = lshr i32 %11, 16
  %13 = shl i32 %12, 8
  %14 = and i32 %13, 65280
  %15 = load i32, ptr %2, align 4, !tbaa !44
  %16 = lshr i32 %15, 16
  %17 = lshr i32 %16, 8
  %18 = and i32 %17, 255
  %19 = or i32 %14, %18
  %20 = or i32 %10, %19
  ret i32 %20
}

; Function Attrs: cold nounwind optsize uwtable
define internal i32 @clv_decode_init(ptr noundef %0) #0 {
  %2 = alloca i32, align 4
  %3 = alloca ptr, align 8
  %4 = alloca ptr, align 8
  %5 = alloca i32, align 4
  %6 = alloca i32, align 4
  %7 = alloca i32, align 4
  %8 = alloca i32, align 4
  store ptr %0, ptr %3, align 8, !tbaa !4
  call void @llvm.lifetime.start.p0(i64 8, ptr %4) #11
  %9 = load ptr, ptr %3, align 8, !tbaa !4
  %10 = getelementptr inbounds nuw %struct.AVCodecContext, ptr %9, i32 0, i32 6
  %11 = load ptr, ptr %10, align 8, !tbaa !9
  store ptr %11, ptr %4, align 8, !tbaa !29
  call void @llvm.lifetime.start.p0(i64 4, ptr %5) #11
  call void @llvm.lifetime.start.p0(i64 4, ptr %6) #11
  call void @llvm.lifetime.start.p0(i64 4, ptr %7) #11
  %12 = load ptr, ptr %3, align 8, !tbaa !4
  %13 = getelementptr inbounds nuw %struct.AVCodecContext, ptr %12, i32 0, i32 13
  %14 = load i32, ptr %13, align 8, !tbaa !31
  %15 = icmp eq i32 %14, 110
  br i1 %15, label %16, label %24

16:                                               ; preds = %1
  %17 = load ptr, ptr %3, align 8, !tbaa !4
  %18 = getelementptr inbounds nuw %struct.AVCodecContext, ptr %17, i32 0, i32 12
  %19 = load ptr, ptr %18, align 8, !tbaa !32
  %20 = getelementptr inbounds i8, ptr %19, i64 94
  %21 = load i32, ptr %20, align 1, !tbaa !33
  %22 = load ptr, ptr %4, align 8, !tbaa !29
  %23 = getelementptr inbounds nuw %struct.CLVContext, ptr %22, i32 0, i32 10
  store i32 %21, ptr %23, align 16, !tbaa !34
  br label %53

24:                                               ; preds = %1
  %25 = load ptr, ptr %3, align 8, !tbaa !4
  %26 = getelementptr inbounds nuw %struct.AVCodecContext, ptr %25, i32 0, i32 13
  %27 = load i32, ptr %26, align 8, !tbaa !31
  %28 = icmp eq i32 %27, 150
  br i1 %28, label %29, label %38

29:                                               ; preds = %24
  %30 = load ptr, ptr %3, align 8, !tbaa !4
  %31 = getelementptr inbounds nuw %struct.AVCodecContext, ptr %30, i32 0, i32 12
  %32 = load ptr, ptr %31, align 8, !tbaa !32
  %33 = getelementptr inbounds i8, ptr %32, i64 134
  %34 = load i32, ptr %33, align 1, !tbaa !33
  %35 = call i32 @av_bswap32(i32 noundef %34) #12
  %36 = load ptr, ptr %4, align 8, !tbaa !29
  %37 = getelementptr inbounds nuw %struct.CLVContext, ptr %36, i32 0, i32 10
  store i32 %35, ptr %37, align 16, !tbaa !34
  br label %52

38:                                               ; preds = %24
  %39 = load ptr, ptr %3, align 8, !tbaa !4
  %40 = getelementptr inbounds nuw %struct.AVCodecContext, ptr %39, i32 0, i32 13
  %41 = load i32, ptr %40, align 8, !tbaa !31
  %42 = icmp ne i32 %41, 0
  br i1 %42, label %46, label %43

43:                                               ; preds = %38
  %44 = load ptr, ptr %4, align 8, !tbaa !29
  %45 = getelementptr inbounds nuw %struct.CLVContext, ptr %44, i32 0, i32 10
  store i32 16, ptr %45, align 16, !tbaa !34
  br label %51

46:                                               ; preds = %38
  %47 = load ptr, ptr %3, align 8, !tbaa !4
  %48 = load ptr, ptr %3, align 8, !tbaa !4
  %49 = getelementptr inbounds nuw %struct.AVCodecContext, ptr %48, i32 0, i32 13
  %50 = load i32, ptr %49, align 8, !tbaa !31
  call void (ptr, i32, ptr, ...) @av_log(ptr noundef %47, i32 noundef 16, ptr noundef @.str.2, i32 noundef %50)
  store i32 -1094995529, ptr %2, align 4
  store i32 1, ptr %8, align 4
  br label %214

51:                                               ; preds = %43
  br label %52

52:                                               ; preds = %51, %29
  br label %53

53:                                               ; preds = %52, %16
  %54 = load ptr, ptr %4, align 8, !tbaa !29
  %55 = getelementptr inbounds nuw %struct.CLVContext, ptr %54, i32 0, i32 10
  %56 = load i32, ptr %55, align 16, !tbaa !34
  %57 = call i32 @ff_log2_c(i32 noundef %56) #12
  %58 = load ptr, ptr %4, align 8, !tbaa !29
  %59 = getelementptr inbounds nuw %struct.CLVContext, ptr %58, i32 0, i32 11
  store i32 %57, ptr %59, align 4, !tbaa !41
  %60 = load ptr, ptr %4, align 8, !tbaa !29
  %61 = getelementptr inbounds nuw %struct.CLVContext, ptr %60, i32 0, i32 11
  %62 = load i32, ptr %61, align 4, !tbaa !41
  %63 = shl i32 1, %62
  %64 = load ptr, ptr %4, align 8, !tbaa !29
  %65 = getelementptr inbounds nuw %struct.CLVContext, ptr %64, i32 0, i32 10
  %66 = load i32, ptr %65, align 16, !tbaa !34
  %67 = icmp ne i32 %63, %66
  br i1 %67, label %78, label %68

68:                                               ; preds = %53
  %69 = load ptr, ptr %4, align 8, !tbaa !29
  %70 = getelementptr inbounds nuw %struct.CLVContext, ptr %69, i32 0, i32 11
  %71 = load i32, ptr %70, align 4, !tbaa !41
  %72 = icmp slt i32 %71, 1
  br i1 %72, label %78, label %73

73:                                               ; preds = %68
  %74 = load ptr, ptr %4, align 8, !tbaa !29
  %75 = getelementptr inbounds nuw %struct.CLVContext, ptr %74, i32 0, i32 11
  %76 = load i32, ptr %75, align 4, !tbaa !41
  %77 = icmp sgt i32 %76, 30
  br i1 %77, label %78, label %83

78:                                               ; preds = %73, %68, %53
  %79 = load ptr, ptr %3, align 8, !tbaa !4
  %80 = load ptr, ptr %4, align 8, !tbaa !29
  %81 = getelementptr inbounds nuw %struct.CLVContext, ptr %80, i32 0, i32 10
  %82 = load i32, ptr %81, align 16, !tbaa !34
  call void (ptr, i32, ptr, ...) @av_log(ptr noundef %79, i32 noundef 16, ptr noundef @.str.3, i32 noundef %82)
  store i32 -1094995529, ptr %2, align 4
  store i32 1, ptr %8, align 4
  br label %214

83:                                               ; preds = %73
  %84 = load ptr, ptr %3, align 8, !tbaa !4
  %85 = getelementptr inbounds nuw %struct.AVCodecContext, ptr %84, i32 0, i32 23
  store i32 0, ptr %85, align 8, !tbaa !42
  %86 = load ptr, ptr %3, align 8, !tbaa !4
  %87 = getelementptr inbounds nuw %struct.AVCodecContext, ptr %86, i32 0, i32 18
  %88 = load i32, ptr %87, align 8, !tbaa !43
  store i32 %88, ptr %6, align 4, !tbaa !44
  %89 = load ptr, ptr %3, align 8, !tbaa !4
  %90 = getelementptr inbounds nuw %struct.AVCodecContext, ptr %89, i32 0, i32 19
  %91 = load i32, ptr %90, align 4, !tbaa !45
  store i32 %91, ptr %7, align 4, !tbaa !44
  %92 = load ptr, ptr %3, align 8, !tbaa !4
  %93 = load i32, ptr %6, align 4, !tbaa !44
  %94 = load ptr, ptr %4, align 8, !tbaa !29
  %95 = getelementptr inbounds nuw %struct.CLVContext, ptr %94, i32 0, i32 11
  %96 = load i32, ptr %95, align 4, !tbaa !41
  %97 = shl i32 1, %96
  %98 = add nsw i32 %93, %97
  %99 = sub nsw i32 %98, 1
  %100 = load ptr, ptr %4, align 8, !tbaa !29
  %101 = getelementptr inbounds nuw %struct.CLVContext, ptr %100, i32 0, i32 11
  %102 = load i32, ptr %101, align 4, !tbaa !41
  %103 = shl i32 1, %102
  %104 = sub nsw i32 %103, 1
  %105 = xor i32 %104, -1
  %106 = and i32 %99, %105
  %107 = load i32, ptr %7, align 4, !tbaa !44
  %108 = load ptr, ptr %4, align 8, !tbaa !29
  %109 = getelementptr inbounds nuw %struct.CLVContext, ptr %108, i32 0, i32 11
  %110 = load i32, ptr %109, align 4, !tbaa !41
  %111 = shl i32 1, %110
  %112 = add nsw i32 %107, %111
  %113 = sub nsw i32 %112, 1
  %114 = load ptr, ptr %4, align 8, !tbaa !29
  %115 = getelementptr inbounds nuw %struct.CLVContext, ptr %114, i32 0, i32 11
  %116 = load i32, ptr %115, align 4, !tbaa !41
  %117 = shl i32 1, %116
  %118 = sub nsw i32 %117, 1
  %119 = xor i32 %118, -1
  %120 = and i32 %113, %119
  %121 = call i32 @ff_set_dimensions(ptr noundef %92, i32 noundef %106, i32 noundef %120)
  store i32 %121, ptr %5, align 4, !tbaa !44
  %122 = load i32, ptr %5, align 4, !tbaa !44
  %123 = icmp slt i32 %122, 0
  br i1 %123, label %124, label %126

124:                                              ; preds = %83
  %125 = load i32, ptr %5, align 4, !tbaa !44
  store i32 %125, ptr %2, align 4
  store i32 1, ptr %8, align 4
  br label %214

126:                                              ; preds = %83
  %127 = load i32, ptr %6, align 4, !tbaa !44
  %128 = load ptr, ptr %3, align 8, !tbaa !4
  %129 = getelementptr inbounds nuw %struct.AVCodecContext, ptr %128, i32 0, i32 18
  store i32 %127, ptr %129, align 8, !tbaa !43
  %130 = load i32, ptr %7, align 4, !tbaa !44
  %131 = load ptr, ptr %3, align 8, !tbaa !4
  %132 = getelementptr inbounds nuw %struct.AVCodecContext, ptr %131, i32 0, i32 19
  store i32 %130, ptr %132, align 4, !tbaa !45
  %133 = load ptr, ptr %3, align 8, !tbaa !4
  %134 = load ptr, ptr %4, align 8, !tbaa !29
  %135 = getelementptr inbounds nuw %struct.CLVContext, ptr %134, i32 0, i32 0
  store ptr %133, ptr %135, align 16, !tbaa !46
  %136 = load ptr, ptr %3, align 8, !tbaa !4
  %137 = getelementptr inbounds nuw %struct.AVCodecContext, ptr %136, i32 0, i32 18
  %138 = load i32, ptr %137, align 8, !tbaa !43
  %139 = add nsw i32 %138, 16
  %140 = sub nsw i32 %139, 1
  %141 = and i32 %140, -16
  %142 = ashr i32 %141, 4
  %143 = load ptr, ptr %4, align 8, !tbaa !29
  %144 = getelementptr inbounds nuw %struct.CLVContext, ptr %143, i32 0, i32 5
  store i32 %142, ptr %144, align 16, !tbaa !47
  %145 = load ptr, ptr %3, align 8, !tbaa !4
  %146 = getelementptr inbounds nuw %struct.AVCodecContext, ptr %145, i32 0, i32 19
  %147 = load i32, ptr %146, align 4, !tbaa !45
  %148 = add nsw i32 %147, 16
  %149 = sub nsw i32 %148, 1
  %150 = and i32 %149, -16
  %151 = ashr i32 %150, 4
  %152 = load ptr, ptr %4, align 8, !tbaa !29
  %153 = getelementptr inbounds nuw %struct.CLVContext, ptr %152, i32 0, i32 6
  store i32 %151, ptr %153, align 4, !tbaa !48
  %154 = load i32, ptr %6, align 4, !tbaa !44
  %155 = load ptr, ptr %4, align 8, !tbaa !29
  %156 = getelementptr inbounds nuw %struct.CLVContext, ptr %155, i32 0, i32 10
  %157 = load i32, ptr %156, align 16, !tbaa !34
  %158 = add nsw i32 %154, %157
  %159 = sub nsw i32 %158, 1
  %160 = load ptr, ptr %4, align 8, !tbaa !29
  %161 = getelementptr inbounds nuw %struct.CLVContext, ptr %160, i32 0, i32 11
  %162 = load i32, ptr %161, align 4, !tbaa !41
  %163 = ashr i32 %159, %162
  %164 = load ptr, ptr %4, align 8, !tbaa !29
  %165 = getelementptr inbounds nuw %struct.CLVContext, ptr %164, i32 0, i32 7
  store i32 %163, ptr %165, align 8, !tbaa !49
  %166 = load i32, ptr %7, align 4, !tbaa !44
  %167 = load ptr, ptr %4, align 8, !tbaa !29
  %168 = getelementptr inbounds nuw %struct.CLVContext, ptr %167, i32 0, i32 10
  %169 = load i32, ptr %168, align 16, !tbaa !34
  %170 = add nsw i32 %166, %169
  %171 = sub nsw i32 %170, 1
  %172 = load ptr, ptr %4, align 8, !tbaa !29
  %173 = getelementptr inbounds nuw %struct.CLVContext, ptr %172, i32 0, i32 11
  %174 = load i32, ptr %173, align 4, !tbaa !41
  %175 = ashr i32 %171, %174
  %176 = load ptr, ptr %4, align 8, !tbaa !29
  %177 = getelementptr inbounds nuw %struct.CLVContext, ptr %176, i32 0, i32 8
  store i32 %175, ptr %177, align 4, !tbaa !50
  %178 = call ptr @av_frame_alloc()
  %179 = load ptr, ptr %4, align 8, !tbaa !29
  %180 = getelementptr inbounds nuw %struct.CLVContext, ptr %179, i32 0, i32 2
  store ptr %178, ptr %180, align 16, !tbaa !51
  %181 = call ptr @av_frame_alloc()
  %182 = load ptr, ptr %4, align 8, !tbaa !29
  %183 = getelementptr inbounds nuw %struct.CLVContext, ptr %182, i32 0, i32 3
  store ptr %181, ptr %183, align 8, !tbaa !52
  %184 = load ptr, ptr %4, align 8, !tbaa !29
  %185 = getelementptr inbounds nuw %struct.CLVContext, ptr %184, i32 0, i32 7
  %186 = load i32, ptr %185, align 8, !tbaa !49
  %187 = mul nsw i32 %186, 2
  %188 = sext i32 %187 to i64
  %189 = call noalias ptr @av_calloc(i64 noundef %188, i64 noundef 4)
  %190 = load ptr, ptr %4, align 8, !tbaa !29
  %191 = getelementptr inbounds nuw %struct.CLVContext, ptr %190, i32 0, i32 9
  %192 = getelementptr inbounds nuw %struct.MVInfo, ptr %191, i32 0, i32 5
  store ptr %189, ptr %192, align 8, !tbaa !53
  %193 = load ptr, ptr %4, align 8, !tbaa !29
  %194 = getelementptr inbounds nuw %struct.CLVContext, ptr %193, i32 0, i32 2
  %195 = load ptr, ptr %194, align 16, !tbaa !51
  %196 = icmp ne ptr %195, null
  br i1 %196, label %197, label %208

197:                                              ; preds = %126
  %198 = load ptr, ptr %4, align 8, !tbaa !29
  %199 = getelementptr inbounds nuw %struct.CLVContext, ptr %198, i32 0, i32 3
  %200 = load ptr, ptr %199, align 8, !tbaa !52
  %201 = icmp ne ptr %200, null
  br i1 %201, label %202, label %208

202:                                              ; preds = %197
  %203 = load ptr, ptr %4, align 8, !tbaa !29
  %204 = getelementptr inbounds nuw %struct.CLVContext, ptr %203, i32 0, i32 9
  %205 = getelementptr inbounds nuw %struct.MVInfo, ptr %204, i32 0, i32 5
  %206 = load ptr, ptr %205, align 8, !tbaa !53
  %207 = icmp ne ptr %206, null
  br i1 %207, label %209, label %208

208:                                              ; preds = %202, %197, %126
  store i32 -12, ptr %2, align 4
  store i32 1, ptr %8, align 4
  br label %214

209:                                              ; preds = %202
  %210 = load ptr, ptr %4, align 8, !tbaa !29
  %211 = getelementptr inbounds nuw %struct.CLVContext, ptr %210, i32 0, i32 1
  %212 = load ptr, ptr %3, align 8, !tbaa !4
  call void @ff_idctdsp_init(ptr noundef %211, ptr noundef %212)
  %213 = call i32 @pthread_once(ptr noundef @clv_decode_init.init_static_once, ptr noundef @clv_init_static)
  store i32 0, ptr %2, align 4
  store i32 1, ptr %8, align 4
  br label %214

214:                                              ; preds = %209, %208, %124, %78, %46
  call void @llvm.lifetime.end.p0(i64 4, ptr %7) #11
  call void @llvm.lifetime.end.p0(i64 4, ptr %6) #11
  call void @llvm.lifetime.end.p0(i64 4, ptr %5) #11
  call void @llvm.lifetime.end.p0(i64 8, ptr %4) #11
  %215 = load i32, ptr %2, align 4
  ret i32 %215
}