; Function Attrs: cold nounwind optsize uwtable
define internal range(i32 -2147483648, 1) i32 @clv_decode_init(ptr noundef %0) #0 {
  %2 = getelementptr inbounds nuw i8, ptr %0, i64 32
  %3 = load ptr, ptr %2, align 8, !tbaa !4
  %4 = getelementptr inbounds nuw i8, ptr %0, i64 80
  %5 = load i32, ptr %4, align 8, !tbaa !27
  switch i32 %5, label %17 [
    i32 110, label %6
    i32 150, label %11
    i32 0, label %18
  ]

6:                                                ; preds = %1
  %7 = getelementptr inbounds nuw i8, ptr %0, i64 72
  %8 = load ptr, ptr %7, align 8, !tbaa !28
  %9 = getelementptr inbounds nuw i8, ptr %8, i64 94
  %10 = load i32, ptr %9, align 1, !tbaa !29
  br label %18

11:                                               ; preds = %1
  %12 = getelementptr inbounds nuw i8, ptr %0, i64 72
  %13 = load ptr, ptr %12, align 8, !tbaa !28
  %14 = getelementptr inbounds nuw i8, ptr %13, i64 134
  %15 = load i32, ptr %14, align 1, !tbaa !29
  %16 = tail call i32 @llvm.bswap.i32(i32 %15)
  br label %18

17:                                               ; preds = %1
  tail call void (ptr, i32, ptr, ...) @av_log(ptr noundef nonnull %0, i32 noundef 16, ptr noundef nonnull @.str.2, i32 noundef %5) #13
  br label %80

18:                                               ; preds = %1, %11, %6
  %.sink = phi i32 [ %16, %11 ], [ %10, %6 ], [ 16, %1 ]
  %19 = getelementptr inbounds nuw i8, ptr %3, i64 224
  store i32 %.sink, ptr %19, align 16, !tbaa !30
  %20 = getelementptr inbounds nuw i8, ptr %3, i64 224
  %.not.i = icmp ult i32 %.sink, 65536
  %21 = lshr i32 %.sink, 16
  %spec.select.i = select i1 %.not.i, i32 %.sink, i32 %21
  %spec.select12.i = select i1 %.not.i, i32 0, i32 16
  %.not11.i = icmp samesign ult i32 %spec.select.i, 256
  %22 = lshr i32 %spec.select.i, 8
  %23 = or disjoint i32 %spec.select12.i, 8
  %.110.i = select i1 %.not11.i, i32 %spec.select.i, i32 %22
  %.1.i = select i1 %.not11.i, i32 %spec.select12.i, i32 %23
  %24 = zext nneg i32 %.110.i to i64
  %25 = getelementptr inbounds nuw [256 x i8], ptr @ff_log2_tab, i64 0, i64 %24
  %26 = load i8, ptr %25, align 1, !tbaa !29
  %27 = zext i8 %26 to i32
  %28 = add nuw nsw i32 %.1.i, %27
  %29 = getelementptr inbounds nuw i8, ptr %3, i64 228
  store i32 %28, ptr %29, align 4, !tbaa !38
  %30 = shl nuw i32 1, %28
  %.not61 = icmp ne i32 %30, %.sink
  %31 = add nsw i32 %28, -31
  %32 = icmp ult i32 %31, -30
  %or.cond65 = or i1 %.not61, %32
  br i1 %or.cond65, label %33, label %34

33:                                               ; preds = %18
  tail call void (ptr, i32, ptr, ...) @av_log(ptr noundef nonnull %0, i32 noundef 16, ptr noundef nonnull @.str.3, i32 noundef %.sink) #13
  br label %80

34:                                               ; preds = %18
  %35 = getelementptr inbounds nuw i8, ptr %0, i64 136
  store i32 0, ptr %35, align 8, !tbaa !39
  %36 = getelementptr inbounds nuw i8, ptr %0, i64 112
  %37 = load i32, ptr %36, align 8, !tbaa !40
  %38 = getelementptr inbounds nuw i8, ptr %0, i64 116
  %39 = load i32, ptr %38, align 4, !tbaa !41
  %40 = add i32 %.sink, -1
  %41 = add i32 %40, %37
  %42 = sub i32 0, %.sink
  %43 = and i32 %41, %42
  %44 = add i32 %40, %39
  %45 = and i32 %44, %42
  %46 = tail call i32 @ff_set_dimensions(ptr noundef nonnull %0, i32 noundef %43, i32 noundef %45) #13
  %47 = icmp slt i32 %46, 0
  br i1 %47, label %80, label %48

48:                                               ; preds = %34
  store i32 %37, ptr %36, align 8, !tbaa !40
  store i32 %39, ptr %38, align 4, !tbaa !41
  store ptr %0, ptr %3, align 16, !tbaa !42
  %49 = add nsw i32 %37, 15
  %50 = ashr i32 %49, 4
  %51 = getelementptr inbounds nuw i8, ptr %3, i64 176
  store i32 %50, ptr %51, align 16, !tbaa !43
  %52 = add nsw i32 %39, 15
  %53 = ashr i32 %52, 4
  %54 = getelementptr inbounds nuw i8, ptr %3, i64 180
  store i32 %53, ptr %54, align 4, !tbaa !44
  %55 = load i32, ptr %20, align 16, !tbaa !30
  %56 = add i32 %37, -1
  %57 = add i32 %56, %55
  %58 = load i32, ptr %29, align 4, !tbaa !38
  %59 = ashr i32 %57, %58
  %60 = getelementptr inbounds nuw i8, ptr %3, i64 184
  store i32 %59, ptr %60, align 8, !tbaa !45
  %61 = add i32 %39, -1
  %62 = add i32 %61, %55
  %63 = ashr i32 %62, %58
  %64 = getelementptr inbounds nuw i8, ptr %3, i64 188
  store i32 %63, ptr %64, align 4, !tbaa !46
  %65 = tail call ptr @av_frame_alloc() #13
  %66 = getelementptr inbounds nuw i8, ptr %3, i64 128
  store ptr %65, ptr %66, align 16, !tbaa !47
  %67 = tail call ptr @av_frame_alloc() #13
  %68 = getelementptr inbounds nuw i8, ptr %3, i64 136
  store ptr %67, ptr %68, align 8, !tbaa !48
  %69 = load i32, ptr %60, align 8, !tbaa !45
  %70 = shl nsw i32 %69, 1
  %71 = sext i32 %70 to i64
  %72 = tail call noalias ptr @av_calloc(i64 noundef %71, i64 noundef 4) #13
  %73 = getelementptr inbounds nuw i8, ptr %3, i64 216
  store ptr %72, ptr %73, align 8, !tbaa !49
  %74 = load ptr, ptr %66, align 16, !tbaa !47
  %.not62 = icmp eq ptr %74, null
  br i1 %.not62, label %80, label %75

75:                                               ; preds = %48
  %76 = load ptr, ptr %68, align 8, !tbaa !48
  %.not63 = icmp eq ptr %76, null
  %.not64 = icmp eq ptr %72, null
  %or.cond66 = select i1 %.not63, i1 true, i1 %.not64
  br i1 %or.cond66, label %80, label %77

77:                                               ; preds = %75
  %78 = getelementptr inbounds nuw i8, ptr %3, i64 8
  tail call void @ff_idctdsp_init(ptr noundef nonnull %78, ptr noundef nonnull %0) #13
  %79 = tail call i32 @pthread_once(ptr noundef nonnull @clv_decode_init.init_static_once, ptr noundef nonnull @clv_init_static) #13
  br label %80

80:                                               ; preds = %48, %75, %34, %77, %33, %17
  %.0 = phi i32 [ -1094995529, %33 ], [ 0, %77 ], [ -1094995529, %17 ], [ %46, %34 ], [ -12, %75 ], [ -12, %48 ]
  ret i32 %.0
}